; ModuleID = '29/848.c'
source_filename = "29/848.c"
target datalayout = "e-m:e-p270:32:32-p271:32:32-p272:64:64-i64:64-f80:128-n8:16:32:64-S128"
target triple = "x86_64-pc-linux-gnu"

@.str = private unnamed_addr constant [4 x i8] c"%d\0A\00", align 1
@.str.1 = private unnamed_addr constant [7 x i8] c"%.3lf\0A\00", align 1

; Function Attrs: noinline nounwind uwtable
define dso_local i32 @main() #0 {
  %1 = alloca i32, align 4
  %2 = alloca i32, align 4
  %3 = alloca i32, align 4
  %4 = alloca i32, align 4
  %5 = alloca i32, align 4
  %6 = alloca double, align 8
  %7 = alloca double, align 8
  %8 = alloca double, align 8
  %9 = alloca double, align 8
  %10 = alloca double, align 8
  store i32 0, i32* %1, align 4
  %11 = call i32 (i8*, ...) @__isoc99_scanf(i8* getelementptr inbounds ([4 x i8], [4 x i8]* @.str, i64 0, i64 0), i32* %3)
  store i32 0, i32* %5, align 4
  br label %12

12:                                               ; preds = %40, %0
  %13 = load i32, i32* %5, align 4
  %14 = load i32, i32* %3, align 4
  %15 = icmp slt i32 %13, %14
  br i1 %15, label %16, label %43

16:                                               ; preds = %12
  %17 = call i32 (i8*, ...) @__isoc99_scanf(i8* getelementptr inbounds ([4 x i8], [4 x i8]* @.str, i64 0, i64 0), i32* %2)
  store double 2.000000e+00, double* %6, align 8
  store double 1.000000e+00, double* %7, align 8
  store double 0.000000e+00, double* %8, align 8
  store i32 0, i32* %4, align 4
  br label %18

18:                                               ; preds = %34, %16
  %19 = load i32, i32* %4, align 4
  %20 = load i32, i32* %2, align 4
  %21 = icmp slt i32 %19, %20
  br i1 %21, label %22, label %37

22:                                               ; preds = %18
  %23 = load double, double* %8, align 8
  %24 = load double, double* %6, align 8
  %25 = load double, double* %7, align 8
  %26 = fdiv double %24, %25
  %27 = fadd double %23, %26
  store double %27, double* %8, align 8
  %28 = load double, double* %6, align 8
  %29 = load double, double* %7, align 8
  %30 = fadd double %28, %29
  store double %30, double* %9, align 8
  %31 = load double, double* %6, align 8
  store double %31, double* %10, align 8
  %32 = load double, double* %9, align 8
  store double %32, double* %6, align 8
  %33 = load double, double* %10, align 8
  store double %33, double* %7, align 8
  br label %34

34:                                               ; preds = %22
  %35 = load i32, i32* %4, align 4
  %36 = add nsw i32 %35, 1
  store i32 %36, i32* %4, align 4
  br label %18

37:                                               ; preds = %18
  %38 = load double, double* %8, align 8
  %39 = call i32 (i8*, ...) @printf(i8* getelementptr inbounds ([7 x i8], [7 x i8]* @.str.1, i64 0, i64 0), double %38)
  br label %40

40:                                               ; preds = %37
  %41 = load i32, i32* %5, align 4
  %42 = add nsw i32 %41, 1
  store i32 %42, i32* %5, align 4
  br label %12

43:                                               ; preds = %12
  ret i32 0
}

declare dso_local i32 @__isoc99_scanf(i8*, ...) #1

declare dso_local i32 @printf(i8*, ...) #1


!llvm.module.flags = !{!0}
!llvm.ident = !{!1}

!0 = !{i32 1, !"wchar_size", i32 4}
!1 = !{!"clang version 10.0.0-4ubuntu1 "}
